target datalayout = "e-m:e-p270:32:32-p271:32:32-p272:64:64-i64:64-i128:128-f80:128-n8:16:32:64-S128"
target triple = "x86_64-pc-linux-gnu"

%struct.AVFilterContext = type { ptr, ptr, ptr, ptr, ptr, i32, ptr, ptr, i32, ptr, ptr, i32, i32, ptr, ptr, ptr, ptr, i32, ptr, i32, i32 }
%struct.VAAPIVPPContext = type { ptr, ptr, ptr, i32, i32, i32, ptr, ptr, %struct._VARectangle, i32, i32, i32, [10 x i32], i32, i32, ptr, ptr }
%struct._VARectangle = type { i16, i16, i16, i16 }
%struct.ProcampVAAPIContext = type { %struct.VAAPIVPPContext, float, float, float, float }

; Function Attrs: cold nounwind optsize uwtable
define internal i32 @procamp_vaapi_init(ptr noundef %0) #0 {
  %2 = alloca ptr, align 8
  %3 = alloca ptr, align 8
  %4 = alloca ptr, align 8
  %5 = alloca float, align 4
  store ptr %0, ptr %2, align 8, !tbaa !4
  call void @llvm.lifetime.start.p0(i64 8, ptr %3) #6
  %6 = load ptr, ptr %2, align 8, !tbaa !4
  %7 = getelementptr inbounds nuw %struct.AVFilterContext, ptr %6, i32 0, i32 9
  %8 = load ptr, ptr %7, align 8, !tbaa !9
  store ptr %8, ptr %3, align 8, !tbaa !22
  call void @llvm.lifetime.start.p0(i64 8, ptr %4) #6
  %9 = load ptr, ptr %2, align 8, !tbaa !4
  %10 = getelementptr inbounds nuw %struct.AVFilterContext, ptr %9, i32 0, i32 9
  %11 = load ptr, ptr %10, align 8, !tbaa !9
  store ptr %11, ptr %4, align 8, !tbaa !24
  call void @llvm.lifetime.start.p0(i64 4, ptr %5) #6
  store float 0x3DDB7CDFE0000000, ptr %5, align 4, !tbaa !26
  %12 = load ptr, ptr %2, align 8, !tbaa !4
  call void @ff_vaapi_vpp_ctx_init(ptr noundef %12)
  %13 = load ptr, ptr %3, align 8, !tbaa !22
  %14 = getelementptr inbounds nuw %struct.VAAPIVPPContext, ptr %13, i32 0, i32 16
  store ptr @ff_vaapi_vpp_pipeline_uninit, ptr %14, align 8, !tbaa !28
  %15 = load ptr, ptr %3, align 8, !tbaa !22
  %16 = getelementptr inbounds nuw %struct.VAAPIVPPContext, ptr %15, i32 0, i32 15
  store ptr @procamp_vaapi_build_filter_params, ptr %16, align 8, !tbaa !34
  %17 = load ptr, ptr %3, align 8, !tbaa !22
  %18 = getelementptr inbounds nuw %struct.VAAPIVPPContext, ptr %17, i32 0, i32 9
  store i32 -1, ptr %18, align 8, !tbaa !35
  %19 = load ptr, ptr %4, align 8, !tbaa !24
  %20 = getelementptr inbounds nuw %struct.ProcampVAAPIContext, ptr %19, i32 0, i32 3
  %21 = load float, ptr %20, align 8, !tbaa !36
  %22 = fsub nsz float %21, 1.000000e+00
  %23 = fpext nsz float %22 to double
  %24 = call nsz double @llvm.fabs.f64(double %23)
  %25 = load float, ptr %5, align 4, !tbaa !26
  %26 = fpext nsz float %25 to double
  %27 = fcmp nsz olt double %24, %26
  br i1 %27, label %28, label %61

28:                                               ; preds = %1
  %29 = load ptr, ptr %4, align 8, !tbaa !24
  %30 = getelementptr inbounds nuw %struct.ProcampVAAPIContext, ptr %29, i32 0, i32 1
  %31 = load float, ptr %30, align 8, !tbaa !38
  %32 = fsub nsz float %31, 0.000000e+00
  %33 = fpext nsz float %32 to double
  %34 = call nsz double @llvm.fabs.f64(double %33)
  %35 = load float, ptr %5, align 4, !tbaa !26
  %36 = fpext nsz float %35 to double
  %37 = fcmp nsz olt double %34, %36
  br i1 %37, label %38, label %61

38:                                               ; preds = %28
  %39 = load ptr, ptr %4, align 8, !tbaa !24
  %40 = getelementptr inbounds nuw %struct.ProcampVAAPIContext, ptr %39, i32 0, i32 4
  %41 = load float, ptr %40, align 4, !tbaa !39
  %42 = fsub nsz float %41, 1.000000e+00
  %43 = fpext nsz float %42 to double
  %44 = call nsz double @llvm.fabs.f64(double %43)
  %45 = load float, ptr %5, align 4, !tbaa !26
  %46 = fpext nsz float %45 to double
  %47 = fcmp nsz olt double %44, %46
  br i1 %47, label %48, label %61

48:                                               ; preds = %38
  %49 = load ptr, ptr %4, align 8, !tbaa !24
  %50 = getelementptr inbounds nuw %struct.ProcampVAAPIContext, ptr %49, i32 0, i32 2
  %51 = load float, ptr %50, align 4, !tbaa !40
  %52 = fsub nsz float %51, 0.000000e+00
  %53 = fpext nsz float %52 to double
  %54 = call nsz double @llvm.fabs.f64(double %53)
  %55 = load float, ptr %5, align 4, !tbaa !26
  %56 = fpext nsz float %55 to double
  %57 = fcmp nsz olt double %54, %56
  br i1 %57, label %58, label %61

58:                                               ; preds = %48
  %59 = load ptr, ptr %3, align 8, !tbaa !22
  %60 = getelementptr inbounds nuw %struct.VAAPIVPPContext, ptr %59, i32 0, i32 14
  store i32 1, ptr %60, align 8, !tbaa !41
  br label %61

61:                                               ; preds = %58, %48, %38, %28, %1
  call void @llvm.lifetime.end.p0(i64 4, ptr %5) #6
  call void @llvm.lifetime.end.p0(i64 8, ptr %4) #6
  call void @llvm.lifetime.end.p0(i64 8, ptr %3) #6
  ret i32 0
}