; Function Attrs: cold nounwind optsize uwtable
define internal noundef i32 @procamp_vaapi_init(ptr noundef %0) #0 {
  %2 = getelementptr inbounds nuw i8, ptr %0, i64 72
  %3 = load ptr, ptr %2, align 8, !tbaa !4
  tail call void @ff_vaapi_vpp_ctx_init(ptr noundef %0) #7
  %4 = getelementptr inbounds nuw i8, ptr %3, i64 136
  store ptr @ff_vaapi_vpp_pipeline_uninit, ptr %4, align 8, !tbaa !20
  %5 = getelementptr inbounds nuw i8, ptr %3, i64 128
  store ptr @procamp_vaapi_build_filter_params, ptr %5, align 8, !tbaa !26
  %6 = getelementptr inbounds nuw i8, ptr %3, i64 64
  store i32 -1, ptr %6, align 8, !tbaa !27
  %7 = getelementptr inbounds nuw i8, ptr %3, i64 152
  %8 = load float, ptr %7, align 8, !tbaa !28
  %9 = fadd nsz float %8, -1.000000e+00
  %10 = tail call nsz float @llvm.fabs.f32(float %9)
  %11 = fcmp nsz olt float %10, 0x3DDB7CDFE0000000
  br i1 %11, label %12, label %30

12:                                               ; preds = %1
  %13 = getelementptr inbounds nuw i8, ptr %3, i64 144
  %14 = load float, ptr %13, align 8, !tbaa !31
  %15 = tail call nsz float @llvm.fabs.f32(float %14)
  %16 = fcmp nsz olt float %15, 0x3DDB7CDFE0000000
  br i1 %16, label %17, label %30

17:                                               ; preds = %12
  %18 = getelementptr inbounds nuw i8, ptr %3, i64 156
  %19 = load float, ptr %18, align 4, !tbaa !32
  %20 = fadd nsz float %19, -1.000000e+00
  %21 = tail call nsz float @llvm.fabs.f32(float %20)
  %22 = fcmp nsz olt float %21, 0x3DDB7CDFE0000000
  br i1 %22, label %23, label %30

23:                                               ; preds = %17
  %24 = getelementptr inbounds nuw i8, ptr %3, i64 148
  %25 = load float, ptr %24, align 4, !tbaa !33
  %26 = tail call nsz float @llvm.fabs.f32(float %25)
  %27 = fcmp nsz olt float %26, 0x3DDB7CDFE0000000
  br i1 %27, label %28, label %30

28:                                               ; preds = %23
  %29 = getelementptr inbounds nuw i8, ptr %3, i64 120
  store i32 1, ptr %29, align 8, !tbaa !34
  br label %30

30:                                               ; preds = %28, %23, %17, %12, %1
  ret i32 0
}